; ModuleID = 'source-C-CXX/14/389.c'
source_filename = "source-C-CXX/14/389.c"
target datalayout = "e-m:e-p270:32:32-p271:32:32-p272:64:64-i64:64-f80:128-n8:16:32:64-S128"
target triple = "x86_64-pc-linux-gnu"

@.str = private unnamed_addr constant [3 x i8] c"%d\00", align 1

; Function Attrs: nofree nounwind sspstrong uwtable
define dso_local i32 @main() local_unnamed_addr #0 {
  %1 = alloca i32, align 4
  %2 = alloca i32, align 4
  %3 = alloca i32, align 4
  %4 = bitcast i32* %1 to i8*
  call void @llvm.lifetime.start.p0i8(i64 4, i8* nonnull %4) #3
  %5 = bitcast i32* %2 to i8*
  call void @llvm.lifetime.start.p0i8(i64 4, i8* nonnull %5) #3
  %6 = bitcast i32* %3 to i8*
  call void @llvm.lifetime.start.p0i8(i64 4, i8* nonnull %6) #3
  %7 = call i32 (i8*, ...) @__isoc99_scanf(i8* getelementptr inbounds ([3 x i8], [3 x i8]* @.str, i64 0, i64 0), i32* nonnull %3)
  %8 = load i32, i32* %3, align 4, !tbaa !5
  %9 = mul nsw i32 %8, %8
  %10 = icmp eq i32 %9, 0
  br i1 %10, label %42, label %11

11:                                               ; preds = %0, %19
  %12 = phi i32 [ %20, %19 ], [ 1, %0 ]
  %13 = call i32 (i8*, ...) @__isoc99_scanf(i8* getelementptr inbounds ([3 x i8], [3 x i8]* @.str, i64 0, i64 0), i32* nonnull %1)
  %14 = load i32, i32* %1, align 4, !tbaa !5
  %15 = icmp eq i32 %14, 0
  br i1 %15, label %16, label %19

16:                                               ; preds = %11
  %17 = load i32, i32* %3, align 4, !tbaa !5
  %18 = mul nsw i32 %17, %17
  br label %24

19:                                               ; preds = %11
  %20 = add nuw nsw i32 %12, 1
  %21 = load i32, i32* %3, align 4, !tbaa !5
  %22 = mul nsw i32 %21, %21
  %23 = icmp ult i32 %12, %22
  br i1 %23, label %11, label %24, !llvm.loop !9

24:                                               ; preds = %19, %16
  %25 = phi i32 [ %18, %16 ], [ %22, %19 ]
  %26 = phi i32 [ %17, %16 ], [ %21, %19 ]
  %27 = phi i32 [ %12, %16 ], [ 0, %19 ]
  %28 = icmp ugt i32 %25, %27
  br i1 %28, label %29, label %42

29:                                               ; preds = %24, %29
  %30 = phi i32 [ %36, %29 ], [ 0, %24 ]
  %31 = phi i32 [ %37, %29 ], [ 1, %24 ]
  %32 = call i32 (i8*, ...) @__isoc99_scanf(i8* getelementptr inbounds ([3 x i8], [3 x i8]* @.str, i64 0, i64 0), i32* nonnull %2)
  %33 = load i32, i32* %2, align 4, !tbaa !5
  %34 = icmp eq i32 %33, 0
  %35 = add nuw nsw i32 %31, %27
  %36 = select i1 %34, i32 %35, i32 %30
  %37 = add nuw nsw i32 %31, 1
  %38 = load i32, i32* %3, align 4, !tbaa !5
  %39 = mul nsw i32 %38, %38
  %40 = sub nsw i32 %39, %27
  %41 = icmp slt i32 %31, %40
  br i1 %41, label %29, label %42, !llvm.loop !11

42:                                               ; preds = %29, %0, %24
  %43 = phi i32 [ %27, %24 ], [ 0, %0 ], [ %27, %29 ]
  %44 = phi i32 [ 0, %24 ], [ 0, %0 ], [ %36, %29 ]
  %45 = phi i32 [ %26, %24 ], [ %8, %0 ], [ %38, %29 ]
  %46 = srem i32 %43, %45
  %47 = icmp eq i32 %46, 0
  %48 = srem i32 %44, %45
  %49 = icmp eq i32 %48, 0
  %50 = sdiv i32 %44, %45
  %51 = xor i1 %49, true
  %52 = zext i1 %51 to i32
  %53 = add nsw i32 %50, %52
  %54 = select i1 %49, i32 %45, i32 %48
  %55 = select i1 %47, i32 %45, i32 %46
  %56 = sdiv i32 %43, %45
  %57 = xor i1 %47, true
  %58 = zext i1 %57 to i32
  %59 = add nsw i32 %56, %58
  %60 = xor i32 %59, -1
  %61 = add i32 %53, %60
  %62 = xor i32 %55, -1
  %63 = add i32 %54, %62
  %64 = mul nsw i32 %61, %63
  %65 = call i32 (i8*, ...) @printf(i8* nonnull dereferenceable(1) getelementptr inbounds ([3 x i8], [3 x i8]* @.str, i64 0, i64 0), i32 %64)
  call void @llvm.lifetime.end.p0i8(i64 4, i8* nonnull %6) #3
  call void @llvm.lifetime.end.p0i8(i64 4, i8* nonnull %5) #3
  call void @llvm.lifetime.end.p0i8(i64 4, i8* nonnull %4) #3
  ret i32 0
}

; Function Attrs: argmemonly mustprogress nofree nosync nounwind willreturn
declare void @llvm.lifetime.start.p0i8(i64 immarg, i8* nocapture) #1

; Function Attrs: nofree nounwind
declare noundef i32 @__isoc99_scanf(i8* nocapture noundef readonly, ...) local_unnamed_addr #2

; Function Attrs: nofree nounwind
declare noundef i32 @printf(i8* nocapture noundef readonly, ...) local_unnamed_addr #2

; Function Attrs: argmemonly mustprogress nofree nosync nounwind willreturn
declare void @llvm.lifetime.end.p0i8(i64 immarg, i8* nocapture) #1


!llvm.module.flags = !{!0, !1, !2, !3}
!llvm.ident = !{!4}

!0 = !{i32 1, !"wchar_size", i32 4}
!1 = !{i32 7, !"PIC Level", i32 2}
!2 = !{i32 7, !"PIE Level", i32 2}
!3 = !{i32 7, !"uwtable", i32 1}
!4 = !{!"clang version 13.0.0"}
!5 = !{!6, !6, i64 0}
!6 = !{!"int", !7, i64 0}
!7 = !{!"omnipotent char", !8, i64 0}
!8 = !{!"Simple C/C++ TBAA"}
!9 = distinct !{!9, !10}
!10 = !{!"llvm.loop.mustprogress"}
!11 = distinct !{!11, !10}
